; Function Attrs: mustprogress uwtable
define hidden noundef i32 @_ZN7datalog21sieve_relation_plugin17get_relation_kindERKNS_18relation_signatureEPKbi(ptr noundef nonnull align 8 dereferenceable(104) %0, ptr noundef nonnull align 8 dereferenceable(8) %1, ptr noundef readonly captures(none) %2, i32 noundef %3) local_unnamed_addr #3 align 2 personality ptr @__gxx_personality_v0 {
  %5 = alloca %"struct.datalog::sieve_relation_plugin::rel_spec", align 8
  call void @llvm.lifetime.start.p0(i64 16, ptr nonnull %5) #23
  %6 = load ptr, ptr %1, align 8, !tbaa !10
  %7 = icmp eq ptr %6, null
  br i1 %7, label %_ZNK6vectorIP4sortLb0EjE4sizeEv.exit.thread, label %_ZNK6vectorIP4sortLb0EjE4sizeEv.exit

_ZNK6vectorIP4sortLb0EjE4sizeEv.exit.thread:      ; preds = %4
  store ptr null, ptr %5, align 8, !tbaa !29
  br label %_ZN7datalog21sieve_relation_plugin8rel_specC2EjPKbi.exit

_ZNK6vectorIP4sortLb0EjE4sizeEv.exit:             ; preds = %4
  %8 = getelementptr inbounds i8, ptr %6, i64 -4
  %9 = load i32, ptr %8, align 4, !tbaa !14
  store ptr null, ptr %5, align 8, !tbaa !29
  %.not.i.i.i = icmp eq i32 %9, 0
  br i1 %.not.i.i.i, label %_ZN7datalog21sieve_relation_plugin8rel_specC2EjPKbi.exit, label %.lr.ph.preheader.i.i.i

.lr.ph.preheader.i.i.i:                           ; preds = %_ZNK6vectorIP4sortLb0EjE4sizeEv.exit
  %wide.trip.count.i.i.i = zext i32 %9 to i64
  br label %.lr.ph.i.i.i

.lr.ph.i.i.i:                                     ; preds = %_ZN6vectorIbLb0EjE9push_backERKb.exit.i.i.i, %.lr.ph.preheader.i.i.i
  %10 = phi ptr [ null, %.lr.ph.preheader.i.i.i ], [ %20, %_ZN6vectorIbLb0EjE9push_backERKb.exit.i.i.i ]
  %indvars.iv.i.i.i = phi i64 [ 0, %.lr.ph.preheader.i.i.i ], [ %indvars.iv.next.i.i.i, %_ZN6vectorIbLb0EjE9push_backERKb.exit.i.i.i ]
  %11 = getelementptr inbounds nuw i8, ptr %2, i64 %indvars.iv.i.i.i
  %12 = icmp eq ptr %10, null
  br i1 %12, label %19, label %13

13:                                               ; preds = %.lr.ph.i.i.i
  %14 = getelementptr inbounds i8, ptr %10, i64 -4
  %15 = load i32, ptr %14, align 4, !tbaa !14
  %16 = getelementptr inbounds i8, ptr %10, i64 -8
  %17 = load i32, ptr %16, align 4, !tbaa !14
  %18 = icmp eq i32 %15, %17
  br i1 %18, label %19, label %_ZN6vectorIbLb0EjE9push_backERKb.exit.i.i.i

19:                                               ; preds = %13, %.lr.ph.i.i.i
  call void @_ZN6vectorIbLb0EjE13expand_vectorEv(ptr noundef nonnull align 8 dereferenceable(12) %5)
  %.pre.i.i.i.i = load ptr, ptr %5, align 8, !tbaa !29
  %.phi.trans.insert.i.i.i.i = getelementptr inbounds i8, ptr %.pre.i.i.i.i, i64 -4
  %.pre2.i.i.i.i = load i32, ptr %.phi.trans.insert.i.i.i.i, align 4, !tbaa !14
  br label %_ZN6vectorIbLb0EjE9push_backERKb.exit.i.i.i

_ZN6vectorIbLb0EjE9push_backERKb.exit.i.i.i:      ; preds = %19, %13
  %20 = phi ptr [ %.pre.i.i.i.i, %19 ], [ %10, %13 ]
  %21 = phi i32 [ %.pre2.i.i.i.i, %19 ], [ %15, %13 ]
  %22 = getelementptr inbounds i8, ptr %20, i64 -4
  %23 = zext i32 %21 to i64
  %24 = getelementptr inbounds nuw i8, ptr %20, i64 %23
  %25 = load i8, ptr %11, align 1, !tbaa !32, !range !34, !noundef !35
  store i8 %25, ptr %24, align 1, !tbaa !32
  %26 = add i32 %21, 1
  store i32 %26, ptr %22, align 4, !tbaa !14
  %indvars.iv.next.i.i.i = add nuw nsw i64 %indvars.iv.i.i.i, 1
  %exitcond.not.i.i.i = icmp eq i64 %indvars.iv.next.i.i.i, %wide.trip.count.i.i.i
  br i1 %exitcond.not.i.i.i, label %_ZN7datalog21sieve_relation_plugin8rel_specC2EjPKbi.exit, label %.lr.ph.i.i.i, !llvm.loop !36

_ZN7datalog21sieve_relation_plugin8rel_specC2EjPKbi.exit: ; preds = %_ZN6vectorIbLb0EjE9push_backERKb.exit.i.i.i, %_ZNK6vectorIP4sortLb0EjE4sizeEv.exit.thread, %_ZNK6vectorIP4sortLb0EjE4sizeEv.exit
  %27 = getelementptr inbounds nuw i8, ptr %5, i64 8
  store i32 %3, ptr %27, align 8, !tbaa !92
  %28 = getelementptr inbounds nuw i8, ptr %0, i64 40
  %29 = invoke noundef i32 @_ZN7datalog14rel_spec_storeINS_21sieve_relation_plugin8rel_specENS2_4hashE10default_eqIS2_EE17get_relation_kindERKNS_18relation_signatureERKS2_(ptr noundef nonnull align 8 dereferenceable(64) %28, ptr noundef nonnull align 8 dereferenceable(8) %1, ptr noundef nonnull align 8 dereferenceable(12) %5)
          to label %30 unwind label %37

30:                                               ; preds = %_ZN7datalog21sieve_relation_plugin8rel_specC2EjPKbi.exit
  %31 = load ptr, ptr %5, align 8, !tbaa !29
  %.not.i.i.i6 = icmp eq ptr %31, null
  br i1 %.not.i.i.i6, label %_ZN7datalog21sieve_relation_plugin8rel_specD2Ev.exit, label %32

32:                                               ; preds = %30
  %33 = getelementptr inbounds i8, ptr %31, i64 -8
  invoke void @_ZN6memory10deallocateEPv(ptr noundef nonnull %33)
          to label %_ZN7datalog21sieve_relation_plugin8rel_specD2Ev.exit unwind label %34

34:                                               ; preds = %32
  %35 = landingpad { ptr, i32 }
          catch ptr null
  %36 = extractvalue { ptr, i32 } %35, 0
  call void @__clang_call_terminate(ptr %36) #24
  unreachable

_ZN7datalog21sieve_relation_plugin8rel_specD2Ev.exit: ; preds = %30, %32
  call void @llvm.lifetime.end.p0(i64 16, ptr nonnull %5) #23
  ret i32 %29

37:                                               ; preds = %_ZN7datalog21sieve_relation_plugin8rel_specC2EjPKbi.exit
  %38 = landingpad { ptr, i32 }
          cleanup
  call void @_ZN7datalog21sieve_relation_plugin8rel_specD2Ev(ptr noundef nonnull align 8 dereferenceable(12) %5) #23
  call void @llvm.lifetime.end.p0(i64 16, ptr nonnull %5) #23
  resume { ptr, i32 } %38
}